#include <math.h>
#include <stdio.h>
#include <stdlib.h>
#include <string.h>

main()
{
	char a[60]={0},b[60]={0},c[60]={0};
	scanf("%s %s",a,b);
	int n=strlen(b),m=strlen(a);
	int i,j,k,l;
	for(i=0;i<=n-m;i++)
	{
		for(j=i;j<=i+m-1;j++)
		{
			c[j-i]=b[j];
		}
		if(strcmp(a,c)==0) 
		{
			printf("%d",i);break;
		}
	}
	return 0;
}