; ModuleID = '45/2682.c'
source_filename = "45/2682.c"
target datalayout = "e-m:e-p270:32:32-p271:32:32-p272:64:64-i64:64-f80:128-n8:16:32:64-S128"
target triple = "x86_64-pc-linux-gnu"

@.str = private unnamed_addr constant [6 x i8] c"%s %s\00", align 1
@.str.1 = private unnamed_addr constant [3 x i8] c"%d\00", align 1

; Function Attrs: noinline nounwind uwtable
define dso_local i32 @main() #0 {
  %1 = alloca i32, align 4
  %2 = alloca [60 x i8], align 16
  %3 = alloca [60 x i8], align 16
  %4 = alloca [60 x i8], align 16
  %5 = alloca i32, align 4
  %6 = alloca i32, align 4
  %7 = alloca i32, align 4
  %8 = alloca i32, align 4
  %9 = alloca i32, align 4
  %10 = alloca i32, align 4
  store i32 0, i32* %1, align 4
  %11 = bitcast [60 x i8]* %2 to i8*
  call void @llvm.memset.p0i8.i64(i8* align 16 %11, i8 0, i64 60, i1 false)
  %12 = bitcast [60 x i8]* %3 to i8*
  call void @llvm.memset.p0i8.i64(i8* align 16 %12, i8 0, i64 60, i1 false)
  %13 = bitcast [60 x i8]* %4 to i8*
  call void @llvm.memset.p0i8.i64(i8* align 16 %13, i8 0, i64 60, i1 false)
  %14 = getelementptr inbounds [60 x i8], [60 x i8]* %2, i64 0, i64 0
  %15 = getelementptr inbounds [60 x i8], [60 x i8]* %3, i64 0, i64 0
  %16 = call i32 (i8*, ...) @__isoc99_scanf(i8* getelementptr inbounds ([6 x i8], [6 x i8]* @.str, i64 0, i64 0), i8* %14, i8* %15)
  %17 = getelementptr inbounds [60 x i8], [60 x i8]* %3, i64 0, i64 0
  %18 = call i64 @strlen(i8* %17) #4
  %19 = trunc i64 %18 to i32
  store i32 %19, i32* %5, align 4
  %20 = getelementptr inbounds [60 x i8], [60 x i8]* %2, i64 0, i64 0
  %21 = call i64 @strlen(i8* %20) #4
  %22 = trunc i64 %21 to i32
  store i32 %22, i32* %6, align 4
  store i32 0, i32* %7, align 4
  br label %23

23:                                               ; preds = %60, %0
  %24 = load i32, i32* %7, align 4
  %25 = load i32, i32* %5, align 4
  %26 = load i32, i32* %6, align 4
  %27 = sub nsw i32 %25, %26
  %28 = icmp sle i32 %24, %27
  br i1 %28, label %29, label %63

29:                                               ; preds = %23
  %30 = load i32, i32* %7, align 4
  store i32 %30, i32* %8, align 4
  br label %31

31:                                               ; preds = %48, %29
  %32 = load i32, i32* %8, align 4
  %33 = load i32, i32* %7, align 4
  %34 = load i32, i32* %6, align 4
  %35 = add nsw i32 %33, %34
  %36 = sub nsw i32 %35, 1
  %37 = icmp sle i32 %32, %36
  br i1 %37, label %38, label %51

38:                                               ; preds = %31
  %39 = load i32, i32* %8, align 4
  %40 = sext i32 %39 to i64
  %41 = getelementptr inbounds [60 x i8], [60 x i8]* %3, i64 0, i64 %40
  %42 = load i8, i8* %41, align 1
  %43 = load i32, i32* %8, align 4
  %44 = load i32, i32* %7, align 4
  %45 = sub nsw i32 %43, %44
  %46 = sext i32 %45 to i64
  %47 = getelementptr inbounds [60 x i8], [60 x i8]* %4, i64 0, i64 %46
  store i8 %42, i8* %47, align 1
  br label %48

48:                                               ; preds = %38
  %49 = load i32, i32* %8, align 4
  %50 = add nsw i32 %49, 1
  store i32 %50, i32* %8, align 4
  br label %31

51:                                               ; preds = %31
  %52 = getelementptr inbounds [60 x i8], [60 x i8]* %2, i64 0, i64 0
  %53 = getelementptr inbounds [60 x i8], [60 x i8]* %4, i64 0, i64 0
  %54 = call i32 @strcmp(i8* %52, i8* %53) #4
  %55 = icmp eq i32 %54, 0
  br i1 %55, label %56, label %59

56:                                               ; preds = %51
  %57 = load i32, i32* %7, align 4
  %58 = call i32 (i8*, ...) @printf(i8* getelementptr inbounds ([3 x i8], [3 x i8]* @.str.1, i64 0, i64 0), i32 %57)
  br label %63

59:                                               ; preds = %51
  br label %60

60:                                               ; preds = %59
  %61 = load i32, i32* %7, align 4
  %62 = add nsw i32 %61, 1
  store i32 %62, i32* %7, align 4
  br label %23

63:                                               ; preds = %56, %23
  ret i32 0
}

; Function Attrs: argmemonly nounwind willreturn
declare void @llvm.memset.p0i8.i64(i8* nocapture writeonly, i8, i64, i1 immarg) #1

declare dso_local i32 @__isoc99_scanf(i8*, ...) #2

; Function Attrs: nounwind readonly
declare dso_local i64 @strlen(i8*) #3

; Function Attrs: nounwind readonly
declare dso_local i32 @strcmp(i8*, i8*) #3

declare dso_local i32 @printf(i8*, ...) #2


!llvm.module.flags = !{!0}
!llvm.ident = !{!1}

!0 = !{i32 1, !"wchar_size", i32 4}
!1 = !{!"clang version 10.0.0-4ubuntu1 "}
